; Function Attrs: nounwind uwtable
define void @png_write_hIST(ptr noalias noundef %0, ptr noundef readonly captures(none) %1, i32 noundef %2) local_unnamed_addr #1 {
  %4 = alloca [4 x i8], align 1
  %5 = alloca [8 x i8], align 1
  %6 = alloca [3 x i8], align 1
  call void @llvm.lifetime.start.p0(i64 3, ptr nonnull %6) #12
  %7 = getelementptr inbounds nuw i8, ptr %0, i64 608
  %8 = load i16, ptr %7, align 8, !tbaa !56
  %9 = zext i16 %8 to i32
  %10 = icmp sgt i32 %2, %9
  br i1 %10, label %11, label %png_write_chunk_header.exit

11:                                               ; preds = %3
  tail call void @png_warning(ptr noundef nonnull %0, ptr noundef nonnull @.str.28) #12
  br label %48

png_write_chunk_header.exit:                      ; preds = %3
  %12 = shl nsw i32 %2, 1
  tail call void @llvm.experimental.noalias.scope.decl(metadata !183)
  call void @llvm.lifetime.start.p0(i64 8, ptr nonnull %5) #12, !noalias !183
  %13 = getelementptr inbounds nuw i8, ptr %0, i64 1196
  store i32 34, ptr %13, align 4, !tbaa !6, !alias.scope !183
  %14 = lshr i32 %12, 24
  %15 = trunc nuw i32 %14 to i8
  store i8 %15, ptr %5, align 1, !tbaa !3, !noalias !183
  %16 = lshr i32 %12, 16
  %17 = trunc i32 %16 to i8
  %18 = getelementptr inbounds nuw i8, ptr %5, i64 1
  store i8 %17, ptr %18, align 1, !tbaa !3, !noalias !183
  %19 = lshr i32 %12, 8
  %20 = trunc i32 %19 to i8
  %21 = getelementptr inbounds nuw i8, ptr %5, i64 2
  store i8 %20, ptr %21, align 1, !tbaa !3, !noalias !183
  %22 = trunc i32 %12 to i8
  %23 = getelementptr inbounds nuw i8, ptr %5, i64 3
  store i8 %22, ptr %23, align 1, !tbaa !3, !noalias !183
  %24 = getelementptr inbounds nuw i8, ptr %5, i64 4
  store i8 104, ptr %24, align 1, !tbaa !3, !noalias !183
  %25 = getelementptr inbounds nuw i8, ptr %5, i64 5
  store i8 73, ptr %25, align 1, !tbaa !3, !noalias !183
  %26 = getelementptr inbounds nuw i8, ptr %5, i64 6
  store i8 83, ptr %26, align 1, !tbaa !3, !noalias !183
  %27 = getelementptr inbounds nuw i8, ptr %5, i64 7
  store i8 84, ptr %27, align 1, !tbaa !3, !noalias !183
  call void @png_write_data(ptr noundef nonnull %0, ptr noundef nonnull %5, i64 noundef 8) #12
  %28 = getelementptr inbounds nuw i8, ptr %0, i64 544
  store i32 1749635924, ptr %28, align 8, !tbaa !28, !alias.scope !183
  call void @png_reset_crc(ptr noundef nonnull %0) #12
  call void @png_calculate_crc(ptr noundef nonnull %0, ptr noundef nonnull %24, i64 noundef 4) #12
  store i32 66, ptr %13, align 4, !tbaa !6, !alias.scope !183
  call void @llvm.lifetime.end.p0(i64 8, ptr nonnull %5) #12, !noalias !183
  %29 = icmp sgt i32 %2, 0
  br i1 %29, label %png_write_chunk_data.exit.lr.ph, label %png_write_chunk_end.exit

png_write_chunk_data.exit.lr.ph:                  ; preds = %png_write_chunk_header.exit
  %30 = getelementptr inbounds nuw i8, ptr %6, i64 1
  %wide.trip.count = zext nneg i32 %2 to i64
  br label %png_write_chunk_data.exit

png_write_chunk_data.exit:                        ; preds = %png_write_chunk_data.exit.lr.ph, %png_write_chunk_data.exit
  %indvars.iv = phi i64 [ 0, %png_write_chunk_data.exit.lr.ph ], [ %indvars.iv.next, %png_write_chunk_data.exit ]
  %31 = getelementptr inbounds nuw i16, ptr %1, i64 %indvars.iv
  %32 = load i16, ptr %31, align 2, !tbaa !186
  %33 = lshr i16 %32, 8
  %34 = trunc nuw i16 %33 to i8
  store i8 %34, ptr %6, align 1, !tbaa !3
  %35 = trunc i16 %32 to i8
  store i8 %35, ptr %30, align 1, !tbaa !3
  call void @png_write_data(ptr noundef nonnull %0, ptr noundef nonnull %6, i64 noundef 2) #12
  call void @png_calculate_crc(ptr noundef nonnull %0, ptr noundef nonnull %6, i64 noundef 2) #12
  %indvars.iv.next = add nuw nsw i64 %indvars.iv, 1
  %exitcond.not = icmp eq i64 %indvars.iv.next, %wide.trip.count
  br i1 %exitcond.not, label %png_write_chunk_end.exit, label %png_write_chunk_data.exit, !llvm.loop !187

png_write_chunk_end.exit:                         ; preds = %png_write_chunk_data.exit, %png_write_chunk_header.exit
  call void @llvm.experimental.noalias.scope.decl(metadata !188)
  call void @llvm.lifetime.start.p0(i64 4, ptr nonnull %4) #12, !noalias !188
  store i32 130, ptr %13, align 4, !tbaa !6, !alias.scope !188
  %36 = getelementptr inbounds nuw i8, ptr %0, i64 596
  %37 = load i32, ptr %36, align 4, !tbaa !29, !alias.scope !188
  %38 = lshr i32 %37, 24
  %39 = trunc nuw i32 %38 to i8
  store i8 %39, ptr %4, align 1, !tbaa !3, !noalias !188
  %40 = lshr i32 %37, 16
  %41 = trunc i32 %40 to i8
  %42 = getelementptr inbounds nuw i8, ptr %4, i64 1
  store i8 %41, ptr %42, align 1, !tbaa !3, !noalias !188
  %43 = lshr i32 %37, 8
  %44 = trunc i32 %43 to i8
  %45 = getelementptr inbounds nuw i8, ptr %4, i64 2
  store i8 %44, ptr %45, align 1, !tbaa !3, !noalias !188
  %46 = trunc i32 %37 to i8
  %47 = getelementptr inbounds nuw i8, ptr %4, i64 3
  store i8 %46, ptr %47, align 1, !tbaa !3, !noalias !188
  call void @png_write_data(ptr noundef nonnull %0, ptr noundef nonnull %4, i64 noundef 4) #12
  call void @llvm.lifetime.end.p0(i64 4, ptr nonnull %4) #12, !noalias !188
  br label %48

48:                                               ; preds = %png_write_chunk_end.exit, %11
  call void @llvm.lifetime.end.p0(i64 3, ptr nonnull %6) #12
  ret void
}